(lp0
(Ve 
p1
I106794
tp2
a(V t
p3
I89554
tp4
a(Vth
p5
I72322
tp6
a(Vs 
p7
I65834
tp8
a(V th
p9
I62771
tp10
a(V a
p11
I58190
tp12
a(Vhe
p13
I52554
tp14
a(Vt 
p15
I52279
tp16
a(Vn 
p17
I50716
tp18
a(Vthe
p19
I47422
tp20
a(V i
p21
I45684
tp22
a(Vin
p23
I44739
tp24
a(Von
p25
I41457
tp26
a(Vre
p27
I40885
tp28
a(Vd 
p29
I39580
tp30
a(Vhe 
p31
I38752
tp32
a(V o
p33
I35321
tp34
a(Van
p35
I35148
tp36
a(Ver
p37
I32369
tp38
a(Ven
p39
I31490
tp40
a(Vat
p41
I31037
tp42
a(V w
p43
I30589
tp44
a(Vti
p45
I29577
tp46
a(Vis
p47
I29268
tp48
a(V c
p49
I28979
tp50
a(Vy 
p51
I28831
tp52
a(V s
p53
I27625
tp54
a(Vr 
p55
I26794
tp56
a(Ves
p57
I26362
tp58
a(Vnt
p59
I25509
tp60
a(Vo 
p61
I24955
tp62
a(V p
p63
I24484
tp64
a(Vit
p65
I23886
tp66
a(Vor
p67
I23477
tp68
a(Vio
p69
I23368
tp70
a(Vnd
p71
I23179
tp72
a(Vco
p73
I22175
tp74
a(Vto
p75
I21844
tp76
a(Val
p77
I21703
tp78
a(Vion
p79
I21642
tp80
a(Vte
p81
I21407
tp82
a(Von 
p83
I21211
tp84
a(Vf 
p85
I20706
tp86
a(Var
p87
I20312
tp88
a(Vha
p89
I20209
tp90
a(V in
p91
I19918
tp92
a(Vst
p93
I19619
tp94
a(Vof
p95
I19574
tp96
a(V m
p97
I19355
tp98
a(V of
p99
I19349
tp100
a(Vl 
p101
I19287
tp102
a(Vme
p103
I19079
tp104
a(V to
p105
I19074
tp106
a(V b
p107
I19060
tp108
a(Vou
p109
I18988
tp110
a(Vof 
p111
I18714
tp112
a(V co
p113
I18692
tp114
a(Vve
p115
I18411
tp116
a(V f
p117
I18237
tp118
a(Vto 
p119
I17710
tp120
a(V an
p121
I17612
tp122
a(Vro
p123
I17070
tp124
a(Vnd 
p125
I16886
tp126
a(V e
p127
I16694
tp128
a(Ved
p129
I16125
tp130
a(Vis 
p131
I15934
tp132
a(Vand
p133
I15762
tp134
a(Vse
p135
I15732
tp136
a(V r
p137
I15670
tp138
a(Vng
p139
I15407
tp140
a(Vhi
p141
I15317
tp142
a(Vent
p143
I15274
tp144
a(Vur
p145
I14899
tp146
a(Vde
p147
I14882
tp148
a(Vic
p149
I14589
tp150
a(Vin 
p151
I14147
tp152
a(Vea
p153
I14116
tp154
a(Vsi
p155
I14061
tp156
a(Vtio
p157
I13840
tp158
a(Vas
p159
I13838
tp160
a(Ved 
p161
I13774
tp162
a(Vle
p163
I13762
tp164
a(Ve t
p165
I13667
tp166
a(V d
p167
I13499
tp168
a(Vpr
p169
I13429
tp170
a(V h
p171
I13313
tp172
a(Vg 
p173
I13170
tp174
a(Ving
p175
I13106
tp176
a(Vli
p177
I13071
tp178
a(Vom
p179
I12974
tp180
a(Vng 
p181
I12872
tp182
a(Vbe
p183
I12714
tp184
a(Ves 
p185
I12554
tp186
a(Vh 
p187
I12030
tp188
a(Vre 
p189
I11944
tp190
a(Vri
p191
I11872
tp192
a(Vta
p193
I11829
tp194
a(Vat 
p195
I11826
tp196
a(Vn t
p197
I11822
tp198
a(V re
p199
I11742
tp200
a(Vnt 
p201
I11684
tp202
a(Vpe
p203
I11540
tp204
a(Vra
p205
I11505
tp206
a(Ve a
p207
I11486
tp208
a(Vce
p209
I11366
tp210
a(Va 
p211
I11269
tp212
a(Vec
p213
I11235
tp214
a(Vpo
p215
I11026
tp216
a(Vns
p217
I10947
tp218
a(Ver 
p219
I10926
tp220
a(V pr
p221
I10818
tp222
a(V n
p223
I10768
tp224
a(Vne
p225
I10731
tp226
a(Vll
p227
I10570
tp228
a(V be
p229
I10427
tp230
a(Vt t
p231
I10163
tp232
a(Vop
p233
I10132
tp234
a(Vs a
p235
I10118
tp236
a(Vfo
p237
I10112
tp238
a(Val 
p239
I9999
tp240
a(Vss
p241
I9858
tp242
a(Vun
p243
I9821
tp244
a(Vs t
p245
I9819
tp246
a(V is
p247
I9734
tp248
a(Vmen
p249
I9717
tp250
a(Vnc
p251
I9579
tp252
a(Vhat
p253
I9565
tp254
a(Ve c
p255
I9557
tp256
a(Vwe
p257
I9503
tp258
a(Vati
p259
I9497
tp260
a(Vtha
p261
I9233
tp262
a(Vfor
p263
I9203
tp264
a(Vct
p265
I9167
tp266
a(Vus
p267
I9142
tp268
a(Vch
p269
I9022
tp270
a(Vno
p271
I8938
tp272
a(Vrt
p273
I8884
tp274
a(Vem
p275
I8690
tp276
a(Vel
p277
I8640
tp278
a(Vd t
p279
I8608
tp280
a(V a 
p281
I8564
tp282
a(V l
p283
I8513
tp284
a(Vwh
p285
I8501
tp286
a(V wh
p287
I8373
tp288
a(Vthi
p289
I8350
tp290
a(Vly
p291
I8326
tp292
a(Ve i
p293
I8264
tp294
a(Vmi
p295
I8230
tp296
a(Vtr
p297
I8213
tp298
a(Vcom
p299
I8154
tp300
a(Vly 
p301
I8116
tp302
a(Vot
p303
I8104
tp304
a(Vul
p305
I8060
tp306
a(Vwi
p307
I7965
tp308
a(Vil
p309
I7944
tp310
a(Vca
p311
I7940
tp312
a(Vma
p313
I7866
tp314
a(Van 
p315
I7865
tp316
a(Vf t
p317
I7864
tp318
a(Vve 
p319
I7823
tp320
a(V fo
p321
I7815
tp322
a(Vor 
p323
I7804
tp324
a(Vci
p325
I7774
tp326
a(Vas 
p327
I7773
tp328
a(Vni
p329
I7740
tp330
a(Vee
p331
I7738
tp332
a(Vt i
p333
I7669
tp334
a(V we
p335
I7661
tp336
a(Vso
p337
I7537
tp338
a(Vla
p339
I7511
tp340
a(V wi
p341
I7510
tp342
a(Vdi
p343
I7491
tp344
a(V ha
p345
I7427
tp346
a(Vho
p347
I7408
tp348
a(Vut
p349
I7351
tp350
a(Vpro
p351
I7281
tp352
a(Vs i
p353
I7260
tp354
a(Vac
p355
I7247
tp356
a(Vres
p357
I7209
tp358
a(Via
p359
I7184
tp360
a(Vcon
p361
I7143
tp362
a(Ve o
p363
I7047
tp364
a(Vts
p365
I6965
tp366
a(V on
p367
I6925
tp368
a(Vna
p369
I6899
tp370
a(Vhis
p371
I6842
tp372
a(Vate
p373
I6766
tp374
a(Vie
p375
I6761
tp376
a(Vam
p377
I6645
tp378
a(V u
p379
I6607
tp380
a(Vts 
p381
I6556
tp382
a(Vrs
p383
I6438
tp384
a(Vmm
p385
I6393
tp386
a(V it
p387
I6319
tp388
a(Ve s
p389
I6317
tp390
a(Vs o
p391
I6302
tp392
a(Vet
p393
I6229
tp394
a(Vi 
p395
I6199
tp396
a(Vll 
p397
I6197
tp398
a(V g
p399
I6174
tp400
a.